Microchip MPLAB XC8 Compiler V1.33 ()

Linker command line:

--edf=E:\microchip\xc8\v1.33\dat\en_msgs.txt -cs \
  -h+dist/16F27J53/debug\tests_conso.X.debug.sym \
  --cmf=dist/16F27J53/debug\tests_conso.X.debug.cmf -z -Q18F27J53 \
  -oC:\Users\NIO10_~1\AppData\Local\Temp\s3j4.6 \
  -Mdist/16F27J53/debug/tests_conso.X.debug.map -E1 -ver=XC8 \
  -ASTACK=07Bh-09ffh -pstack=STACK -ACODE=00h-01FFF7h -ACONST=00h-01FFF7h \
  -ASMALLCONST=0F00h-0FFFhx496,01FF00h-01FFF7h \
  -AMEDIUMCONST=0F00h-0FFFFh,010F00h-01FFF7h -ACOMRAM=01h-05Fh \
  -AABS1=00h-0EAFh -ABIGRAM=01h-0EAFh \
  -ARAM=060h-0FFh,0100h-01FFhx13,0E00h-0EAFh -ABANK0=060h-0FFh \
  -ABANK1=0100h-01FFh -ABANK2=0200h-02FFh -ABANK3=0300h-03FFh \
  -ABANK4=0400h-04FFh -ABANK5=0500h-05FFh -ABANK6=0600h-06FFh \
  -ABANK7=0700h-07FFh -ABANK8=0800h-08FFh -ABANK9=0900h-09FFh \
  -ABANK10=0A00h-0AFFh -ABANK11=0B00h-0BFFh -ABANK12=0C00h-0CFFh \
  -ABANK13=0D00h-0DFFh -ABANK14=0E00h-0EAFh \
  -ASFR=0EB0h-0EFFh,0F00h-0F5Fh,0F60h-0FFCh \
  -preset_vec=00h,intcode=08h,intcodelo=018h,powerup,init,end_init \
  -pramtop=0F00h -psmallconst=SMALLCONST -pmediumconst=MEDIUMCONST \
  -pconst=CONST -AFARRAM=00h-00h -ACONFIG=01FFF8h-01FFFFh -pconfig=CONFIG \
  -pjflash_buffer=01F800h \
  -prdata=COMRAM,nvrram=COMRAM,nvbit=COMRAM,rbss=COMRAM,rbit=COMRAM \
  -pfarbss=FARRAM,fardata=FARRAM,nvFARRAM=FARRAM \
  -pintsave_regs=BIGRAM,bigbss=BIGRAM,bigdata=BIGRAM -pbss=RAM \
  -pidata=CODE,irdata=CODE,ibigdata=CODE,ifardata=CODE \
  C:\Users\NIO10_~1\AppData\Local\Temp\s3j4.obj \
  dist/16F27J53/debug\tests_conso.X.debug.obj 

Object code version is 3.11

Machine type is 18F27J53

Call graph: (short form)




                Name                               Link     Load   Length Selector   Space Scale
C:\Users\NIO10_~1\AppData\Local\Temp\s3j4.obj
                end_init                             A6       A6        4        C       0
                reset_vec                             0        0        6        0       0
                config                            1FFF8    1FFF8        8    1FFF8       0
dist/16F27J53/debug\tests_conso.X.debug.obj
                intcodelo                            18       18       8E        C       0
                intcode                               8        8       10        4       0
                intcode_body                        786      786       66        C       0
                text11                              8D0      8D0       1A        C       0
                text10                              85E      85E       28        C       0
                text9                               8EA      8EA       12        C       0
                text8                               886      886       26        C       0
                text7                               70E      70E       78        C       0
                text6                               666      666       A8        C       0
                text5                               7EC      7EC       48        C       0
                text4                               584      584       E2        C       0
                text3                               462      462      122        C       0
                text2                               8AC      8AC       24        C       0
                text1                               834      834       2A        C       0
                text0                                AA       AA      3B8        C       0
                cstackCOMRAM                          1        1       3F        1       1
                cstackBANK0                          60       60       1B       60       1
                cinit                               8FC      8FC        6        C       0

TOTAL           Name                               Link     Load   Length     Space
        CLASS   STACK          

        CLASS   CODE           
                end_init                             A6       A6        4         0
                intcodelo                            18       18       8E         0
                intcode                               8        8       10         0
                reset_vec                             0        0        6         0
                intcode_body                        786      786       66         0
                text11                              8D0      8D0       1A         0
                text10                              85E      85E       28         0
                text9                               8EA      8EA       12         0
                text8                               886      886       26         0
                text7                               70E      70E       78         0
                text6                               666      666       A8         0
                text5                               7EC      7EC       48         0
                text4                               584      584       E2         0
                text3                               462      462      122         0
                text2                               8AC      8AC       24         0
                text1                               834      834       2A         0
                text0                                AA       AA      3B8         0
                cinit                               8FC      8FC        6         0

        CLASS   CONST          

        CLASS   SMALLCONST     

        CLASS   MEDIUMCONST    

        CLASS   COMRAM         
                cstackCOMRAM                          1        1       3F         1

        CLASS   ABS1           

        CLASS   BIGRAM         

        CLASS   RAM            

        CLASS   BANK0          
                cstackBANK0                          60       60       1B         1

        CLASS   BANK1          

        CLASS   BANK2          

        CLASS   BANK3          

        CLASS   BANK4          

        CLASS   BANK5          

        CLASS   BANK6          

        CLASS   BANK7          

        CLASS   BANK8          

        CLASS   BANK9          

        CLASS   BANK10         

        CLASS   BANK11         

        CLASS   BANK12         

        CLASS   BANK13         

        CLASS   BANK14         

        CLASS   SFR            

        CLASS   FARRAM         

        CLASS   CONFIG         
                config                            1FFF8    1FFF8        8         0

        CLASS   IDLOC          



SEGMENTS        Name                           Load    Length   Top    Selector   Space  Class

                reset_vec                      000000  000006  000006         0       0  CODE    
                cstackCOMRAM                   000001  00003F  000040         1       1  COMRAM  
                intcode                        000008  000010  000018         4       0  CODE    
                intcodelo                      000018  0008EA  000902         C       0  CODE    
                cstackBANK0                    000060  00001B  00007B        60       1  BANK0   
                config                         01FFF8  000008  020000     1FFF8       0  CONFIG  


UNUSED ADDRESS RANGES

        Name                Unused          Largest block    Delta
        BANK0            0007B-000FF              85
        BANK1            00100-001FF             100
        BANK10           00A00-00AFF             100
        BANK11           00B00-00BFF             100
        BANK12           00C00-00CFF             100
        BANK13           00D00-00DFF             100
        BANK14           00E00-00EAF              B0
        BANK2            00200-002FF             100
        BANK3            00300-003FF             100
        BANK4            00400-004FF             100
        BANK5            00500-005FF             100
        BANK6            00600-006FF             100
        BANK7            00700-007FF             100
        BANK8            00800-008FF             100
        BANK9            00900-009FF             100
        BIGRAM           00040-0005F              20
                         0007B-00EAF             E35
        CODE             00006-00007               2
                         00902-1FFF7           1F6F6
        COMRAM           00040-0005F              20
        CONST            00006-00007               2
                         00902-1FFF7           1F6F6
        MEDIUMCONST      00F00-0FFFF            F100
                         10F00-1FFF7            F0F8
        RAM              0007B-00EAF             100
        SFR              00EB0-00FFC              60
        SMALLCONST       00F00-1FFF7             100
        STACK            0007B-009FF             985

                                  Symbol Table

?___awtoft                  cstackCOMRAM  00028
?___ftdiv                   cstackCOMRAM  00028
?___ftmul                   cstackCOMRAM  00037
?___ftpack                  cstackCOMRAM  00020
?___lwtoft                  cstackCOMRAM  00028
OpenI2C1@slew               cstackCOMRAM  00020
OpenI2C1@sync_mode          cstackCOMRAM  00021
WriteI2C1@data_out          cstackCOMRAM  00021
_ADCON0bits                 (abs)         00FC2
_ADCON1bits                 (abs)         00FC1
_ADRESHbits                 (abs)         00FC4
_ADRESLbits                 (abs)         00FC3
_ALRMCFGbits                (abs)         00F47
_ANCON0                     (abs)         00F48
_ANCON0bits                 (abs)         00F48
_ANCON1                     (abs)         00F49
_ANCON1bits                 (abs)         00F49
_EECON2                     (abs)         00FA7
_INTCONbits                 (abs)         00FF2
_IPR3bits                   (abs)         00FA5
_LATAbits                   (abs)         00F89
_LATCbits                   (abs)         00F8B
_OSCCONbits                 (abs)         00FD3
_OpenI2C1                   text11        008D0
_PIE3bits                   (abs)         00FA3
_PIR1bits                   (abs)         00F9E
_PIR3bits                   (abs)         00FA4
_PLLEN                      (abs)         07CDE
_RCONbits                   (abs)         00FD0
_RTCCAL                     (abs)         00F3E
_RTCCFG                     (abs)         00F3F
_RTCCFGbits                 (abs)         00F3F
_ReadI2C1                   text10        0085E
_RtccInitClock              text8         00886
_RtccWrOn                   text9         008EA
_SSP1ADD                    (abs)         00FC8
_SSP1BUF                    (abs)         00FC9
_SSP1CON1                   (abs)         00FC6
_SSP1CON1bits               (abs)         00FC6
_SSP1CON2                   (abs)         00FC5
_SSP1CON2bits               (abs)         00FC5
_SSP1STAT                   (abs)         00FC7
_SSP1STATbits               (abs)         00FC7
_SYS_InterruptHigh          intcode       00008
_SYS_InterruptLow           intcodelo     00018
_T1CONbits                  (abs)         00FCD
_TRISA                      (abs)         00F92
_TRISAbits                  (abs)         00F92
_TRISB                      (abs)         00F93
_TRISBbits                  (abs)         00F93
_TRISC                      (abs)         00F94
_TRISCbits                  (abs)         00F94
_UCONbits                   (abs)         00F65
_UPUEN                      (abs)         079CC
_WriteI2C1                  text7         0070E
__CFG_ADCSEL$BIT12          (abs)         00000
__CFG_CFGPLLEN$OFF          (abs)         00000
__CFG_CLKOEC$OFF            (abs)         00000
__CFG_CP0$OFF               (abs)         00000
__CFG_FCMEN$OFF             (abs)         00000
__CFG_IESO$OFF              (abs)         00000
__CFG_OSC$INTOSC            (abs)         00000
__CFG_RTCOSC$INTOSCREF      (abs)         00000
__CFG_STVREN$OFF            (abs)         00000
__CFG_WDTEN$OFF             (abs)         00000
__CFG_XINST$OFF             (abs)         00000
__HRAM                      (abs)         00000
__Habs1                     abs1          00000
__Hbank0                    bank0         00000
__Hbank1                    bank1         00000
__Hbank10                   bank10        00000
__Hbank11                   bank11        00000
__Hbank12                   bank12        00000
__Hbank13                   bank13        00000
__Hbank14                   bank14        00000
__Hbank2                    bank2         00000
__Hbank3                    bank3         00000
__Hbank4                    bank4         00000
__Hbank5                    bank5         00000
__Hbank6                    bank6         00000
__Hbank7                    bank7         00000
__Hbank8                    bank8         00000
__Hbank9                    bank9         00000
__Hbigbss                   bigbss        00000
__Hbigdata                  bigdata       00000
__Hbigram                   bigram        00000
__Hbss                      bss           00000
__Hcinit                    cinit         00000
__Hclrtext                  clrtext       00000
__Hcomram                   comram        00000
__Hconfig                   config        20000
__Hconst                    const         00000
__HcstackBANK0              cstackBANK0   00000
__HcstackCOMRAM             cstackCOMRAM  00000
__Hdata                     data          00000
__Hend_init                 end_init      000AA
__Hfarbss                   farbss        00000
__Hfardata                  fardata       00000
__Hibigdata                 ibigdata      00000
__Hidata                    idata         00000
__Hidloc                    idloc         00000
__Hifardata                 ifardata      00000
__Hinit                     init          000A6
__Hintcode                  intcode       00018
__Hintcode_body             intcode_body  00000
__Hintcodelo                intcodelo     000A6
__Hintentry                 intentry      00000
__Hintret                   intret        00000
__Hintsave_regs             intsave_regs  00000
__Hirdata                   irdata        00000
__Hjflash_buffer            jflash_buffer 1F800
__Hmediumconst              mediumconst   00000
__HnvFARRAM                 nvFARRAM      00000
__Hnvbit                    nvbit         00000
__Hnvrram                   nvrram        00000
__Hparam                    rparam        00000
__Hpowerup                  powerup       000A6
__Hram                      ram           00000
__Hramtop                   ramtop        00F00
__Hrbit                     rbit          00000
__Hrbss                     rbss          00000
__Hrdata                    rdata         00000
__Hreset_vec                reset_vec     00006
__Hrparam                   rparam        00000
__Hsfr                      sfr           00000
__Hsmallconst               smallconst    00000
__Hspace_0                  (abs)         20000
__Hspace_1                  (abs)         0007B
__Hspace_2                  (abs)         00000
__Hstack                    stack         00000
__Hstruct                   struct        00000
__Htemp                     temp          00000
__Htext                     text          00000
__Htext0                    text0         00000
__Htext1                    text1         00000
__Htext10                   text10        00000
__Htext11                   text11        00000
__Htext2                    text2         00000
__Htext3                    text3         00000
__Htext4                    text4         00000
__Htext5                    text5         00000
__Htext6                    text6         00000
__Htext7                    text7         00000
__Htext8                    text8         00000
__Htext9                    text9         00000
__LRAM                      (abs)         00001
__Labs1                     abs1          00000
__Lbank0                    bank0         00000
__Lbank1                    bank1         00000
__Lbank10                   bank10        00000
__Lbank11                   bank11        00000
__Lbank12                   bank12        00000
__Lbank13                   bank13        00000
__Lbank14                   bank14        00000
__Lbank2                    bank2         00000
__Lbank3                    bank3         00000
__Lbank4                    bank4         00000
__Lbank5                    bank5         00000
__Lbank6                    bank6         00000
__Lbank7                    bank7         00000
__Lbank8                    bank8         00000
__Lbank9                    bank9         00000
__Lbigbss                   bigbss        00000
__Lbigdata                  bigdata       00000
__Lbigram                   bigram        00000
__Lbss                      bss           00000
__Lcinit                    cinit         00000
__Lclrtext                  clrtext       00000
__Lcomram                   comram        00000
__Lconfig                   config        1FFF8
__Lconst                    const         00000
__LcstackBANK0              cstackBANK0   00000
__LcstackCOMRAM             cstackCOMRAM  00000
__Ldata                     data          00000
__Lend_init                 end_init      000A6
__Lfarbss                   farbss        00000
__Lfardata                  fardata       00000
__Libigdata                 ibigdata      00000
__Lidata                    idata         00000
__Lidloc                    idloc         00000
__Lifardata                 ifardata      00000
__Linit                     init          000A6
__Lintcode                  intcode       00008
__Lintcode_body             intcode_body  00000
__Lintcodelo                intcodelo     00018
__Lintentry                 intentry      00000
__Lintret                   intret        00000
__Lintsave_regs             intsave_regs  00000
__Lirdata                   irdata        00000
__Ljflash_buffer            jflash_buffer 1F800
__Lmediumconst              mediumconst   00000
__LnvFARRAM                 nvFARRAM      00000
__Lnvbit                    nvbit         00000
__Lnvrram                   nvrram        00000
__Lparam                    rparam        00000
__Lpowerup                  powerup       000A6
__Lram                      ram           00000
__Lramtop                   ramtop        00F00
__Lrbit                     rbit          00000
__Lrbss                     rbss          00000
__Lrdata                    rdata         00000
__Lreset_vec                reset_vec     00000
__Lrparam                   rparam        00000
__Lsfr                      sfr           00000
__Lsmallconst               smallconst    00000
__Lspace_0                  (abs)         00000
__Lspace_1                  (abs)         00000
__Lspace_2                  (abs)         00000
__Lstack                    stack         00000
__Lstruct                   struct        00000
__Ltemp                     temp          00000
__Ltext                     text          00000
__Ltext0                    text0         00000
__Ltext1                    text1         00000
__Ltext10                   text10        00000
__Ltext11                   text11        00000
__Ltext2                    text2         00000
__Ltext3                    text3         00000
__Ltext4                    text4         00000
__Ltext5                    text5         00000
__Ltext6                    text6         00000
__Ltext7                    text7         00000
__Ltext8                    text8         00000
__Ltext9                    text9         00000
__S0                        (abs)         20000
__S1                        (abs)         0007B
__S2                        (abs)         00000
___awtoft                   text5         007EC
___awtoft@c                 cstackCOMRAM  00028
___awtoft@sign              cstackCOMRAM  0002B
___ftdiv                    text4         00584
___ftdiv@cntr               cstackCOMRAM  00031
___ftdiv@exp                cstackCOMRAM  00035
___ftdiv@f1                 cstackCOMRAM  00028
___ftdiv@f2                 cstackCOMRAM  0002B
___ftdiv@f3                 cstackCOMRAM  00032
___ftdiv@sign               cstackCOMRAM  00036
___ftmul                    text3         00462
___ftmul@cntr               cstackBANK0   00064
___ftmul@exp                cstackBANK0   00060
___ftmul@f1                 cstackCOMRAM  00037
___ftmul@f2                 cstackCOMRAM  0003A
___ftmul@f3_as_product      cstackBANK0   00061
___ftmul@sign               cstackBANK0   00065
___ftpack                   text6         00666
___ftpack@arg               cstackCOMRAM  00020
___ftpack@exp               cstackCOMRAM  00023
___ftpack@sign              cstackCOMRAM  00024
___inthi_sp                 stack         00000
___intlo_sp                 stack         00000
___lwtoft                   text2         008AC
___lwtoft@c                 cstackCOMRAM  00028
___sp                       stack         00000
__accesstop                 (abs)         00060
__activetblptr              (abs)         00000
__end_of_OpenI2C1           text11        008EA
__end_of_ReadI2C1           text10        00886
__end_of_RtccInitClock      text8         008AC
__end_of_RtccWrOn           text9         008FC
__end_of_SYS_InterruptHigh  intcode_body  007EC
__end_of_SYS_InterruptLow   intcodelo     000A6
__end_of_WriteI2C1          text7         00786
__end_of___awtoft           text5         00834
__end_of___ftdiv            text4         00666
__end_of___ftmul            text3         00584
__end_of___ftpack           text6         0070E
__end_of___lwtoft           text2         008D0
__end_of__initialization    cinit         008FC
__end_of_main               text0         00462
__end_of_wait_for_1_sec     text1         0085E
__initialization            cinit         008FC
__mediumconst               mediumconst   00000
__pcinit                    cinit         008FC
__pcstackBANK0              cstackBANK0   00060
__pcstackCOMRAM             cstackCOMRAM  00001
__pintcode                  intcode       00008
__pintcode_body             intcode_body  00786
__pintcodelo                intcodelo     00018
__ptext0                    text0         000AA
__ptext1                    text1         00834
__ptext10                   text10        0085E
__ptext11                   text11        008D0
__ptext2                    text2         008AC
__ptext3                    text3         00462
__ptext4                    text4         00584
__ptext5                    text5         007EC
__ptext6                    text6         00666
__ptext7                    text7         0070E
__ptext8                    text8         00886
__ptext9                    text9         008EA
__ramtop                    ramtop        00F00
__size_of_OpenI2C1          (abs)         00000
__size_of_ReadI2C1          (abs)         00000
__size_of_RtccInitClock     (abs)         00000
__size_of_RtccWrOn          (abs)         00000
__size_of_SYS_InterruptHigh (abs)         00000
__size_of_SYS_InterruptLow  (abs)         00000
__size_of_WriteI2C1         (abs)         00000
__size_of___awtoft          (abs)         00000
__size_of___ftdiv           (abs)         00000
__size_of___ftmul           (abs)         00000
__size_of___ftpack          (abs)         00000
__size_of___lwtoft          (abs)         00000
__size_of_main              (abs)         00000
__size_of_wait_for_1_sec    (abs)         00000
__smallconst                smallconst    00000
_main                       text0         000AA
_wait_for_1_sec             text1         00834
end_of_initialization       cinit         008FC
int_func                    intcode_body  00786
intlevel0                   text          00000
intlevel1                   text          00000
intlevel2                   text          00000
intlevel3                   text          00000
main@slave_address          cstackBANK0   0007A
main@t0                     cstackBANK0   00073
main@t1                     cstackBANK0   00074
main@temp                   cstackBANK0   0006D
main@value                  cstackBANK0   00078
main@vdd                    cstackBANK0   00070
main@vlight                 cstackBANK0   0006A
main@voltage_adc_result     cstackBANK0   00075
stackhi                     (abs)         009FF
stacklo                     (abs)         0007B
start                       init          000A6
start_initialization        cinit         008FC
wait_for_1_sec@i            cstackCOMRAM  00021


FUNCTION INFORMATION:

 *************** function _main *****************
 Defined at:
		line 55 in file "main.c"
 Parameters:    Size  Location     Type
		None
 Auto vars:     Size  Location     Type
  voltage_adc_    3   21[BANK0 ] float 
  vdd             3   16[BANK0 ] float 
  temp            3   13[BANK0 ] float 
  vlight          3   10[BANK0 ] float 
  value           2   24[BANK0 ] unsigned int 
  t1              1   20[BANK0 ] unsigned char 
  t0              1   19[BANK0 ] unsigned char 
  slave_addres    1   26[BANK0 ] unsigned char 
 Return value:  Size  Location     Type
		None               void
 Registers used:
		wreg, status,2, status,0, prodl, cstack
 Tracked objects:
		On entry : 
		On exit  : 
		Unchanged: 
 Data sizes:     COMRAM   BANK0   BANK1   BANK2   BANK3   BANK4   BANK5   BANK6   BANK7   BANK8   BANK9  BANK10  BANK11  BANK12  BANK13  BANK14
      Params:         0       0       0       0       0       0       0       0       0       0       0       0       0       0       0       0
      Locals:         0      17       0       0       0       0       0       0       0       0       0       0       0       0       0       0
      Temps:          0       4       0       0       0       0       0       0       0       0       0       0       0       0       0       0
      Totals:         0      21       0       0       0       0       0       0       0       0       0       0       0       0       0       0
Total ram usage:       21 bytes
 Hardware stack levels required when called:    4
 This function calls:
		_OpenI2C1
		_ReadI2C1
		_RtccInitClock
		_RtccWrOn
		_WriteI2C1
		___awtoft
		___ftdiv
		___ftmul
		___lwtoft
		_wait_for_1_sec
 This function is called by:
		Startup code after reset
 This function uses a non-reentrant model


 *************** function _wait_for_1_sec *****************
 Defined at:
		line 35 in file "main.c"
 Parameters:    Size  Location     Type
		None
 Auto vars:     Size  Location     Type
  i               2   32[COMRAM] unsigned int 
 Return value:  Size  Location     Type
		None               void
 Registers used:
		wreg, status,2, status,0
 Tracked objects:
		On entry : 
		On exit  : 
		Unchanged: 
 Data sizes:     COMRAM   BANK0   BANK1   BANK2   BANK3   BANK4   BANK5   BANK6   BANK7   BANK8   BANK9  BANK10  BANK11  BANK12  BANK13  BANK14
      Params:         0       0       0       0       0       0       0       0       0       0       0       0       0       0       0       0
      Locals:         2       0       0       0       0       0       0       0       0       0       0       0       0       0       0       0
      Temps:          1       0       0       0       0       0       0       0       0       0       0       0       0       0       0       0
      Totals:         3       0       0       0       0       0       0       0       0       0       0       0       0       0       0       0
Total ram usage:        3 bytes
 Hardware stack levels used:    1
 Hardware stack levels required when called:    2
 This function calls:
		Nothing
 This function is called by:
		_main
		_wait_for_10_sec
 This function uses a non-reentrant model


 *************** function ___lwtoft *****************
 Defined at:
		line 28 in file "E:\microchip\xc8\v1.33\sources\common\lwtoft.c"
 Parameters:    Size  Location     Type
  c               2   39[COMRAM] unsigned int 
 Auto vars:     Size  Location     Type
		None
 Return value:  Size  Location     Type
                  3   39[COMRAM] float 
 Registers used:
		wreg, status,2, status,0, cstack
 Tracked objects:
		On entry : 
		On exit  : 
		Unchanged: 
 Data sizes:     COMRAM   BANK0   BANK1   BANK2   BANK3   BANK4   BANK5   BANK6   BANK7   BANK8   BANK9  BANK10  BANK11  BANK12  BANK13  BANK14
      Params:         3       0       0       0       0       0       0       0       0       0       0       0       0       0       0       0
      Locals:         0       0       0       0       0       0       0       0       0       0       0       0       0       0       0       0
      Temps:          0       0       0       0       0       0       0       0       0       0       0       0       0       0       0       0
      Totals:         3       0       0       0       0       0       0       0       0       0       0       0       0       0       0       0
Total ram usage:        3 bytes
 Hardware stack levels used:    1
 Hardware stack levels required when called:    3
 This function calls:
		___ftpack
 This function is called by:
		_main
 This function uses a non-reentrant model


 *************** function ___ftmul *****************
 Defined at:
		line 62 in file "E:\microchip\xc8\v1.33\sources\common\ftmul.c"
 Parameters:    Size  Location     Type
  f1              3   54[COMRAM] float 
  f2              3   57[COMRAM] float 
 Auto vars:     Size  Location     Type
  f3_as_produc    3    1[BANK0 ] unsigned um
  sign            1    5[BANK0 ] unsigned char 
  cntr            1    4[BANK0 ] unsigned char 
  exp             1    0[BANK0 ] unsigned char 
 Return value:  Size  Location     Type
                  3   54[COMRAM] float 
 Registers used:
		wreg, status,2, status,0, cstack
 Tracked objects:
		On entry : 
		On exit  : 
		Unchanged: 
 Data sizes:     COMRAM   BANK0   BANK1   BANK2   BANK3   BANK4   BANK5   BANK6   BANK7   BANK8   BANK9  BANK10  BANK11  BANK12  BANK13  BANK14
      Params:         6       0       0       0       0       0       0       0       0       0       0       0       0       0       0       0
      Locals:         0       6       0       0       0       0       0       0       0       0       0       0       0       0       0       0
      Temps:          3       0       0       0       0       0       0       0       0       0       0       0       0       0       0       0
      Totals:         9       6       0       0       0       0       0       0       0       0       0       0       0       0       0       0
Total ram usage:       15 bytes
 Hardware stack levels used:    1
 Hardware stack levels required when called:    3
 This function calls:
		___ftpack
 This function is called by:
		_main
 This function uses a non-reentrant model


 *************** function ___ftdiv *****************
 Defined at:
		line 49 in file "E:\microchip\xc8\v1.33\sources\common\ftdiv.c"
 Parameters:    Size  Location     Type
  f1              3   39[COMRAM] float 
  f2              3   42[COMRAM] float 
 Auto vars:     Size  Location     Type
  f3              3   49[COMRAM] float 
  sign            1   53[COMRAM] unsigned char 
  exp             1   52[COMRAM] unsigned char 
  cntr            1   48[COMRAM] unsigned char 
 Return value:  Size  Location     Type
                  3   39[COMRAM] float 
 Registers used:
		wreg, status,2, status,0, cstack
 Tracked objects:
		On entry : 
		On exit  : 
		Unchanged: 
 Data sizes:     COMRAM   BANK0   BANK1   BANK2   BANK3   BANK4   BANK5   BANK6   BANK7   BANK8   BANK9  BANK10  BANK11  BANK12  BANK13  BANK14
      Params:         6       0       0       0       0       0       0       0       0       0       0       0       0       0       0       0
      Locals:         6       0       0       0       0       0       0       0       0       0       0       0       0       0       0       0
      Temps:          3       0       0       0       0       0       0       0       0       0       0       0       0       0       0       0
      Totals:        15       0       0       0       0       0       0       0       0       0       0       0       0       0       0       0
Total ram usage:       15 bytes
 Hardware stack levels used:    1
 Hardware stack levels required when called:    3
 This function calls:
		___ftpack
 This function is called by:
		_main
 This function uses a non-reentrant model


 *************** function ___awtoft *****************
 Defined at:
		line 32 in file "E:\microchip\xc8\v1.33\sources\common\awtoft.c"
 Parameters:    Size  Location     Type
  c               2   39[COMRAM] int 
 Auto vars:     Size  Location     Type
  sign            1   42[COMRAM] unsigned char 
 Return value:  Size  Location     Type
                  3   39[COMRAM] float 
 Registers used:
		wreg, status,2, status,0, prodl, cstack
 Tracked objects:
		On entry : 
		On exit  : 
		Unchanged: 
 Data sizes:     COMRAM   BANK0   BANK1   BANK2   BANK3   BANK4   BANK5   BANK6   BANK7   BANK8   BANK9  BANK10  BANK11  BANK12  BANK13  BANK14
      Params:         3       0       0       0       0       0       0       0       0       0       0       0       0       0       0       0
      Locals:         1       0       0       0       0       0       0       0       0       0       0       0       0       0       0       0
      Temps:          0       0       0       0       0       0       0       0       0       0       0       0       0       0       0       0
      Totals:         4       0       0       0       0       0       0       0       0       0       0       0       0       0       0       0
Total ram usage:        4 bytes
 Hardware stack levels used:    1
 Hardware stack levels required when called:    3
 This function calls:
		___ftpack
 This function is called by:
		_main
 This function uses a non-reentrant model


 *************** function ___ftpack *****************
 Defined at:
		line 62 in file "E:\microchip\xc8\v1.33\sources\common\float.c"
 Parameters:    Size  Location     Type
  arg             3   31[COMRAM] unsigned um
  exp             1   34[COMRAM] unsigned char 
  sign            1   35[COMRAM] unsigned char 
 Auto vars:     Size  Location     Type
		None
 Return value:  Size  Location     Type
                  3   31[COMRAM] float 
 Registers used:
		wreg, status,2, status,0
 Tracked objects:
		On entry : 
		On exit  : 
		Unchanged: 
 Data sizes:     COMRAM   BANK0   BANK1   BANK2   BANK3   BANK4   BANK5   BANK6   BANK7   BANK8   BANK9  BANK10  BANK11  BANK12  BANK13  BANK14
      Params:         5       0       0       0       0       0       0       0       0       0       0       0       0       0       0       0
      Locals:         0       0       0       0       0       0       0       0       0       0       0       0       0       0       0       0
      Temps:          3       0       0       0       0       0       0       0       0       0       0       0       0       0       0       0
      Totals:         8       0       0       0       0       0       0       0       0       0       0       0       0       0       0       0
Total ram usage:        8 bytes
 Hardware stack levels used:    1
 Hardware stack levels required when called:    2
 This function calls:
		Nothing
 This function is called by:
		___awtoft
		___ftdiv
		___ftmul
		___lwtoft
 This function uses a non-reentrant model


 *************** function _WriteI2C1 *****************
 Defined at:
		line 12 in file "E:\microchip\xc8\v1.33\sources\pic18\plib\i2c\i2c1writ.c"
 Parameters:    Size  Location     Type
  data_out        1    wreg     unsigned char 
 Auto vars:     Size  Location     Type
  data_out        1   32[COMRAM] unsigned char 
 Return value:  Size  Location     Type
                  1    wreg      char 
 Registers used:
		wreg, status,2, status,0
 Tracked objects:
		On entry : 
		On exit  : 
		Unchanged: 
 Data sizes:     COMRAM   BANK0   BANK1   BANK2   BANK3   BANK4   BANK5   BANK6   BANK7   BANK8   BANK9  BANK10  BANK11  BANK12  BANK13  BANK14
      Params:         0       0       0       0       0       0       0       0       0       0       0       0       0       0       0       0
      Locals:         1       0       0       0       0       0       0       0       0       0       0       0       0       0       0       0
      Temps:          1       0       0       0       0       0       0       0       0       0       0       0       0       0       0       0
      Totals:         2       0       0       0       0       0       0       0       0       0       0       0       0       0       0       0
Total ram usage:        2 bytes
 Hardware stack levels used:    1
 Hardware stack levels required when called:    2
 This function calls:
		Nothing
 This function is called by:
		_main
 This function uses a non-reentrant model


 *************** function _RtccInitClock *****************
 Defined at:
		line 21 in file "E:\microchip\xc8\v1.33\sources\pic18\plib\rtcc\RTCCInitClock.c"
 Parameters:    Size  Location     Type
		None
 Auto vars:     Size  Location     Type
		None
 Return value:  Size  Location     Type
		None               void
 Registers used:
		wreg, status,2, cstack
 Tracked objects:
		On entry : 
		On exit  : 
		Unchanged: 
 Data sizes:     COMRAM   BANK0   BANK1   BANK2   BANK3   BANK4   BANK5   BANK6   BANK7   BANK8   BANK9  BANK10  BANK11  BANK12  BANK13  BANK14
      Params:         0       0       0       0       0       0       0       0       0       0       0       0       0       0       0       0
      Locals:         0       0       0       0       0       0       0       0       0       0       0       0       0       0       0       0
      Temps:          0       0       0       0       0       0       0       0       0       0       0       0       0       0       0       0
      Totals:         0       0       0       0       0       0       0       0       0       0       0       0       0       0       0       0
Total ram usage:        0 bytes
 Hardware stack levels used:    1
 Hardware stack levels required when called:    3
 This function calls:
		_RtccWrOn
 This function is called by:
		_main
 This function uses a non-reentrant model


 *************** function _RtccWrOn *****************
 Defined at:
		line 21 in file "E:\microchip\xc8\v1.33\sources\pic18\plib\rtcc\RtccWrOn.c"
 Parameters:    Size  Location     Type
		None
 Auto vars:     Size  Location     Type
  data            2    0        unsigned int 
 Return value:  Size  Location     Type
		None               void
 Registers used:
		wreg, status,2
 Tracked objects:
		On entry : 
		On exit  : 
		Unchanged: 
 Data sizes:     COMRAM   BANK0   BANK1   BANK2   BANK3   BANK4   BANK5   BANK6   BANK7   BANK8   BANK9  BANK10  BANK11  BANK12  BANK13  BANK14
      Params:         0       0       0       0       0       0       0       0       0       0       0       0       0       0       0       0
      Locals:         0       0       0       0       0       0       0       0       0       0       0       0       0       0       0       0
      Temps:          0       0       0       0       0       0       0       0       0       0       0       0       0       0       0       0
      Totals:         0       0       0       0       0       0       0       0       0       0       0       0       0       0       0       0
Total ram usage:        0 bytes
 Hardware stack levels used:    1
 Hardware stack levels required when called:    2
 This function calls:
		Nothing
 This function is called by:
		_main
		_RtccInitClock
 This function uses a non-reentrant model


 *************** function _ReadI2C1 *****************
 Defined at:
		line 11 in file "E:\microchip\xc8\v1.33\sources\pic18\plib\i2c\i2c1read.c"
 Parameters:    Size  Location     Type
		None
 Auto vars:     Size  Location     Type
		None
 Return value:  Size  Location     Type
                  1    wreg      unsigned char 
 Registers used:
		wreg, status,2, status,0
 Tracked objects:
		On entry : 
		On exit  : 
		Unchanged: 
 Data sizes:     COMRAM   BANK0   BANK1   BANK2   BANK3   BANK4   BANK5   BANK6   BANK7   BANK8   BANK9  BANK10  BANK11  BANK12  BANK13  BANK14
      Params:         0       0       0       0       0       0       0       0       0       0       0       0       0       0       0       0
      Locals:         0       0       0       0       0       0       0       0       0       0       0       0       0       0       0       0
      Temps:          1       0       0       0       0       0       0       0       0       0       0       0       0       0       0       0
      Totals:         1       0       0       0       0       0       0       0       0       0       0       0       0       0       0       0
Total ram usage:        1 bytes
 Hardware stack levels used:    1
 Hardware stack levels required when called:    2
 This function calls:
		Nothing
 This function is called by:
		_main
 This function uses a non-reentrant model


 *************** function _OpenI2C1 *****************
 Defined at:
		line 29 in file "E:\microchip\xc8\v1.33\sources\pic18\plib\i2c\i2c1open.c"
 Parameters:    Size  Location     Type
  sync_mode       1    wreg     unsigned char 
  slew            1   31[COMRAM] unsigned char 
 Auto vars:     Size  Location     Type
  sync_mode       1   32[COMRAM] unsigned char 
 Return value:  Size  Location     Type
		None               void
 Registers used:
		wreg, status,2, status,0
 Tracked objects:
		On entry : 
		On exit  : 
		Unchanged: 
 Data sizes:     COMRAM   BANK0   BANK1   BANK2   BANK3   BANK4   BANK5   BANK6   BANK7   BANK8   BANK9  BANK10  BANK11  BANK12  BANK13  BANK14
      Params:         1       0       0       0       0       0       0       0       0       0       0       0       0       0       0       0
      Locals:         1       0       0       0       0       0       0       0       0       0       0       0       0       0       0       0
      Temps:          0       0       0       0       0       0       0       0       0       0       0       0       0       0       0       0
      Totals:         2       0       0       0       0       0       0       0       0       0       0       0       0       0       0       0
Total ram usage:        2 bytes
 Hardware stack levels used:    1
 Hardware stack levels required when called:    2
 This function calls:
		Nothing
 This function is called by:
		_main
 This function uses a non-reentrant model


 *************** function _SYS_InterruptLow *****************
 Defined at:
		line 250 in file "main.c"
 Parameters:    Size  Location     Type
		None
 Auto vars:     Size  Location     Type
		None
 Return value:  Size  Location     Type
		None               void
 Registers used:
		None
 Tracked objects:
		On entry : 
		On exit  : 
		Unchanged: 
 Data sizes:     COMRAM   BANK0   BANK1   BANK2   BANK3   BANK4   BANK5   BANK6   BANK7   BANK8   BANK9  BANK10  BANK11  BANK12  BANK13  BANK14
      Params:         0       0       0       0       0       0       0       0       0       0       0       0       0       0       0       0
      Locals:         0       0       0       0       0       0       0       0       0       0       0       0       0       0       0       0
      Temps:         17       0       0       0       0       0       0       0       0       0       0       0       0       0       0       0
      Totals:        17       0       0       0       0       0       0       0       0       0       0       0       0       0       0       0
Total ram usage:       17 bytes
 Hardware stack levels used:    1
 Hardware stack levels required when called:    1
 This function calls:
		Nothing
 This function is called by:
		Interrupt level 1
 This function uses a non-reentrant model


 *************** function _SYS_InterruptHigh *****************
 Defined at:
		line 242 in file "main.c"
 Parameters:    Size  Location     Type
		None
 Auto vars:     Size  Location     Type
		None
 Return value:  Size  Location     Type
		None               void
 Registers used:
		None
 Tracked objects:
		On entry : 
		On exit  : 
		Unchanged: 
 Data sizes:     COMRAM   BANK0   BANK1   BANK2   BANK3   BANK4   BANK5   BANK6   BANK7   BANK8   BANK9  BANK10  BANK11  BANK12  BANK13  BANK14
      Params:         0       0       0       0       0       0       0       0       0       0       0       0       0       0       0       0
      Locals:         0       0       0       0       0       0       0       0       0       0       0       0       0       0       0       0
      Temps:         14       0       0       0       0       0       0       0       0       0       0       0       0       0       0       0
      Totals:        14       0       0       0       0       0       0       0       0       0       0       0       0       0       0       0
Total ram usage:       14 bytes
 Hardware stack levels used:    1
 This function calls:
		Nothing
 This function is called by:
		Interrupt level 2
 This function uses a non-reentrant model



MODULE INFORMATION

Module		Function		Class		Link	Load	Size
E:\microchip\xc8\v1.33\sources\common\lwtoft.c
		___lwtoft      		CODE           	08AC	0000	36

E:\microchip\xc8\v1.33\sources\common\lwtoft.c estimated size: 36

E:\microchip\xc8\v1.33\sources\common\awtoft.c
		___awtoft      		CODE           	07EC	0000	72

E:\microchip\xc8\v1.33\sources\common\awtoft.c estimated size: 72

E:\microchip\xc8\v1.33\sources\common\float.c
		___ftpack      		CODE           	0666	0000	168

E:\microchip\xc8\v1.33\sources\common\float.c estimated size: 168

E:\microchip\xc8\v1.33\sources\pic18\plib\i2c\i2c1open.c
		_OpenI2C1      		CODE           	08D0	0000	26

E:\microchip\xc8\v1.33\sources\pic18\plib\i2c\i2c1open.c estimated size: 26

shared
		__initializatio		CODE           	08FC	0000	0

shared estimated size: 0

E:\microchip\xc8\v1.33\sources\pic18\plib\i2c\i2c1writ.c
		_WriteI2C1     		CODE           	070E	0000	120

E:\microchip\xc8\v1.33\sources\pic18\plib\i2c\i2c1writ.c estimated size: 120

E:\microchip\xc8\v1.33\sources\common\ftmul.c
		___ftmul       		CODE           	0462	0000	290

E:\microchip\xc8\v1.33\sources\common\ftmul.c estimated size: 290

E:\microchip\xc8\v1.33\sources\common\ftdiv.c
		___ftdiv       		CODE           	0584	0000	226

E:\microchip\xc8\v1.33\sources\common\ftdiv.c estimated size: 226

E:\microchip\xc8\v1.33\sources\pic18\plib\rtcc\RtccWrOn.c
		_RtccWrOn      		CODE           	08EA	0000	18

E:\microchip\xc8\v1.33\sources\pic18\plib\rtcc\RtccWrOn.c estimated size: 18

E:\microchip\xc8\v1.33\sources\pic18\plib\i2c\i2c1read.c
		_ReadI2C1      		CODE           	085E	0000	40

E:\microchip\xc8\v1.33\sources\pic18\plib\i2c\i2c1read.c estimated size: 40

main.c
		_SYS_InterruptL		CODE           	0018	0000	142
		_SYS_InterruptH		CODE           	0008	0000	2020
		_main          		CODE           	00AA	0000	952
		_wait_for_1_sec		CODE           	0834	0000	42

main.c estimated size: 3156

E:\microchip\xc8\v1.33\sources\pic18\plib\rtcc\RTCCInitClock.c
		_RtccInitClock 		CODE           	0886	0000	38

E:\microchip\xc8\v1.33\sources\pic18\plib\rtcc\RTCCInitClock.c estimated size: 38

